target datalayout = "e-m:e-p270:32:32-p271:32:32-p272:64:64-i64:64-i128:128-f80:128-n8:16:32:64-S128"
target triple = "x86_64-pc-linux-gnu"

%struct.mbedtls_asn1_buf = type { i32, i64, ptr }

; Function Attrs: nounwind uwtable
define internal i32 @x509_check_wildcard(ptr noundef %0, ptr noundef %1) #0 {
  %3 = alloca i32, align 4
  %4 = alloca ptr, align 8
  %5 = alloca ptr, align 8
  %6 = alloca i64, align 8
  %7 = alloca i64, align 8
  %8 = alloca i64, align 8
  %9 = alloca i32, align 4
  store ptr %0, ptr %4, align 8, !tbaa !8
  store ptr %1, ptr %5, align 8, !tbaa !77
  call void @llvm.lifetime.start.p0(i64 8, ptr %6) #10
  call void @llvm.lifetime.start.p0(i64 8, ptr %7) #10
  store i64 0, ptr %7, align 8, !tbaa !10
  call void @llvm.lifetime.start.p0(i64 8, ptr %8) #10
  %10 = load ptr, ptr %4, align 8, !tbaa !8
  %11 = call i64 @strlen(ptr noundef %10) #12
  store i64 %11, ptr %8, align 8, !tbaa !10
  %12 = load ptr, ptr %5, align 8, !tbaa !77
  %13 = getelementptr inbounds nuw %struct.mbedtls_asn1_buf, ptr %12, i32 0, i32 1
  %14 = load i64, ptr %13, align 8, !tbaa !79
  %15 = icmp ult i64 %14, 3
  br i1 %15, label %32, label %16

16:                                               ; preds = %2
  %17 = load ptr, ptr %5, align 8, !tbaa !77
  %18 = getelementptr inbounds nuw %struct.mbedtls_asn1_buf, ptr %17, i32 0, i32 2
  %19 = load ptr, ptr %18, align 8, !tbaa !80
  %20 = getelementptr inbounds i8, ptr %19, i64 0
  %21 = load i8, ptr %20, align 1, !tbaa !29
  %22 = zext i8 %21 to i32
  %23 = icmp ne i32 %22, 42
  br i1 %23, label %32, label %24

24:                                               ; preds = %16
  %25 = load ptr, ptr %5, align 8, !tbaa !77
  %26 = getelementptr inbounds nuw %struct.mbedtls_asn1_buf, ptr %25, i32 0, i32 2
  %27 = load ptr, ptr %26, align 8, !tbaa !80
  %28 = getelementptr inbounds i8, ptr %27, i64 1
  %29 = load i8, ptr %28, align 1, !tbaa !29
  %30 = zext i8 %29 to i32
  %31 = icmp ne i32 %30, 46
  br i1 %31, label %32, label %33

32:                                               ; preds = %24, %16, %2
  store i32 -1, ptr %3, align 4
  store i32 1, ptr %9, align 4
  br label %80

33:                                               ; preds = %24
  store i64 0, ptr %6, align 8, !tbaa !10
  br label %34

34:                                               ; preds = %48, %33
  %35 = load i64, ptr %6, align 8, !tbaa !10
  %36 = load i64, ptr %8, align 8, !tbaa !10
  %37 = icmp ult i64 %35, %36
  br i1 %37, label %38, label %51

38:                                               ; preds = %34
  %39 = load ptr, ptr %4, align 8, !tbaa !8
  %40 = load i64, ptr %6, align 8, !tbaa !10
  %41 = getelementptr inbounds nuw i8, ptr %39, i64 %40
  %42 = load i8, ptr %41, align 1, !tbaa !29
  %43 = sext i8 %42 to i32
  %44 = icmp eq i32 %43, 46
  br i1 %44, label %45, label %47

45:                                               ; preds = %38
  %46 = load i64, ptr %6, align 8, !tbaa !10
  store i64 %46, ptr %7, align 8, !tbaa !10
  br label %51

47:                                               ; preds = %38
  br label %48

48:                                               ; preds = %47
  %49 = load i64, ptr %6, align 8, !tbaa !10
  %50 = add i64 %49, 1
  store i64 %50, ptr %6, align 8, !tbaa !10
  br label %34, !llvm.loop !157

51:                                               ; preds = %45, %34
  %52 = load i64, ptr %7, align 8, !tbaa !10
  %53 = icmp eq i64 %52, 0
  br i1 %53, label %54, label %55

54:                                               ; preds = %51
  store i32 -1, ptr %3, align 4
  store i32 1, ptr %9, align 4
  br label %80

55:                                               ; preds = %51
  %56 = load i64, ptr %8, align 8, !tbaa !10
  %57 = load i64, ptr %7, align 8, !tbaa !10
  %58 = sub i64 %56, %57
  %59 = load ptr, ptr %5, align 8, !tbaa !77
  %60 = getelementptr inbounds nuw %struct.mbedtls_asn1_buf, ptr %59, i32 0, i32 1
  %61 = load i64, ptr %60, align 8, !tbaa !79
  %62 = sub i64 %61, 1
  %63 = icmp eq i64 %58, %62
  br i1 %63, label %64, label %79

64:                                               ; preds = %55
  %65 = load ptr, ptr %5, align 8, !tbaa !77
  %66 = getelementptr inbounds nuw %struct.mbedtls_asn1_buf, ptr %65, i32 0, i32 2
  %67 = load ptr, ptr %66, align 8, !tbaa !80
  %68 = getelementptr inbounds i8, ptr %67, i64 1
  %69 = load ptr, ptr %4, align 8, !tbaa !8
  %70 = load i64, ptr %7, align 8, !tbaa !10
  %71 = getelementptr inbounds nuw i8, ptr %69, i64 %70
  %72 = load ptr, ptr %5, align 8, !tbaa !77
  %73 = getelementptr inbounds nuw %struct.mbedtls_asn1_buf, ptr %72, i32 0, i32 1
  %74 = load i64, ptr %73, align 8, !tbaa !79
  %75 = sub i64 %74, 1
  %76 = call i32 @x509_memcasecmp(ptr noundef %68, ptr noundef %71, i64 noundef %75)
  %77 = icmp eq i32 %76, 0
  br i1 %77, label %78, label %79

78:                                               ; preds = %64
  store i32 0, ptr %3, align 4
  store i32 1, ptr %9, align 4
  br label %80

79:                                               ; preds = %64, %55
  store i32 -1, ptr %3, align 4
  store i32 1, ptr %9, align 4
  br label %80

80:                                               ; preds = %79, %78, %54, %32
  call void @llvm.lifetime.end.p0(i64 8, ptr %8) #10
  call void @llvm.lifetime.end.p0(i64 8, ptr %7) #10
  call void @llvm.lifetime.end.p0(i64 8, ptr %6) #10
  %81 = load i32, ptr %3, align 4
  ret i32 %81
}

; Function Attrs: nounwind uwtable
define internal i32 @x509_memcasecmp(ptr noundef %0, ptr noundef %1, i64 noundef %2) #0 {
  %4 = alloca i32, align 4
  %5 = alloca ptr, align 8
  %6 = alloca ptr, align 8
  %7 = alloca i64, align 8
  %8 = alloca i64, align 8
  %9 = alloca i8, align 1
  %10 = alloca ptr, align 8
  %11 = alloca ptr, align 8
  %12 = alloca i32, align 4
  store ptr %0, ptr %5, align 8, !tbaa !14
  store ptr %1, ptr %6, align 8, !tbaa !14
  store i64 %2, ptr %7, align 8, !tbaa !10
  call void @llvm.lifetime.start.p0(i64 8, ptr %8) #10
  call void @llvm.lifetime.start.p0(i64 1, ptr %9) #10
  call void @llvm.lifetime.start.p0(i64 8, ptr %10) #10
  %13 = load ptr, ptr %5, align 8, !tbaa !14
  store ptr %13, ptr %10, align 8, !tbaa !8
  call void @llvm.lifetime.start.p0(i64 8, ptr %11) #10
  %14 = load ptr, ptr %6, align 8, !tbaa !14
  store ptr %14, ptr %11, align 8, !tbaa !8
  store i64 0, ptr %8, align 8, !tbaa !10
  br label %15

15:                                               ; preds = %70, %3
  %16 = load i64, ptr %8, align 8, !tbaa !10
  %17 = load i64, ptr %7, align 8, !tbaa !10
  %18 = icmp ult i64 %16, %17
  br i1 %18, label %19, label %73

19:                                               ; preds = %15
  %20 = load ptr, ptr %10, align 8, !tbaa !8
  %21 = load i64, ptr %8, align 8, !tbaa !10
  %22 = getelementptr inbounds nuw i8, ptr %20, i64 %21
  %23 = load i8, ptr %22, align 1, !tbaa !29
  %24 = zext i8 %23 to i32
  %25 = load ptr, ptr %11, align 8, !tbaa !8
  %26 = load i64, ptr %8, align 8, !tbaa !10
  %27 = getelementptr inbounds nuw i8, ptr %25, i64 %26
  %28 = load i8, ptr %27, align 1, !tbaa !29
  %29 = zext i8 %28 to i32
  %30 = xor i32 %24, %29
  %31 = trunc i32 %30 to i8
  store i8 %31, ptr %9, align 1, !tbaa !29
  %32 = load i8, ptr %9, align 1, !tbaa !29
  %33 = zext i8 %32 to i32
  %34 = icmp eq i32 %33, 0
  br i1 %34, label %35, label %36

35:                                               ; preds = %19
  br label %70

36:                                               ; preds = %19
  %37 = load i8, ptr %9, align 1, !tbaa !29
  %38 = zext i8 %37 to i32
  %39 = icmp eq i32 %38, 32
  br i1 %39, label %40, label %69

40:                                               ; preds = %36
  %41 = load ptr, ptr %10, align 8, !tbaa !8
  %42 = load i64, ptr %8, align 8, !tbaa !10
  %43 = getelementptr inbounds nuw i8, ptr %41, i64 %42
  %44 = load i8, ptr %43, align 1, !tbaa !29
  %45 = zext i8 %44 to i32
  %46 = icmp sge i32 %45, 97
  br i1 %46, label %47, label %54

47:                                               ; preds = %40
  %48 = load ptr, ptr %10, align 8, !tbaa !8
  %49 = load i64, ptr %8, align 8, !tbaa !10
  %50 = getelementptr inbounds nuw i8, ptr %48, i64 %49
  %51 = load i8, ptr %50, align 1, !tbaa !29
  %52 = zext i8 %51 to i32
  %53 = icmp sle i32 %52, 122
  br i1 %53, label %68, label %54

54:                                               ; preds = %47, %40
  %55 = load ptr, ptr %10, align 8, !tbaa !8
  %56 = load i64, ptr %8, align 8, !tbaa !10
  %57 = getelementptr inbounds nuw i8, ptr %55, i64 %56
  %58 = load i8, ptr %57, align 1, !tbaa !29
  %59 = zext i8 %58 to i32
  %60 = icmp sge i32 %59, 65
  br i1 %60, label %61, label %69

61:                                               ; preds = %54
  %62 = load ptr, ptr %10, align 8, !tbaa !8
  %63 = load i64, ptr %8, align 8, !tbaa !10
  %64 = getelementptr inbounds nuw i8, ptr %62, i64 %63
  %65 = load i8, ptr %64, align 1, !tbaa !29
  %66 = zext i8 %65 to i32
  %67 = icmp sle i32 %66, 90
  br i1 %67, label %68, label %69

68:                                               ; preds = %61, %47
  br label %70

69:                                               ; preds = %61, %54, %36
  store i32 -1, ptr %4, align 4
  store i32 1, ptr %12, align 4
  br label %74

70:                                               ; preds = %68, %35
  %71 = load i64, ptr %8, align 8, !tbaa !10
  %72 = add i64 %71, 1
  store i64 %72, ptr %8, align 8, !tbaa !10
  br label %15, !llvm.loop !156

73:                                               ; preds = %15
  store i32 0, ptr %4, align 4
  store i32 1, ptr %12, align 4
  br label %74

74:                                               ; preds = %73, %69
  call void @llvm.lifetime.end.p0(i64 8, ptr %11) #10
  call void @llvm.lifetime.end.p0(i64 8, ptr %10) #10
  call void @llvm.lifetime.end.p0(i64 1, ptr %9) #10
  call void @llvm.lifetime.end.p0(i64 8, ptr %8) #10
  %75 = load i32, ptr %4, align 4
  ret i32 %75
}

; Function Attrs: nounwind uwtable
define internal i32 @x509_crt_check_cn(ptr noundef %0, ptr noundef %1, i64 noundef %2) #0 {
  %4 = alloca i32, align 4
  %5 = alloca ptr, align 8
  %6 = alloca ptr, align 8
  %7 = alloca i64, align 8
  store ptr %0, ptr %5, align 8, !tbaa !77
  store ptr %1, ptr %6, align 8, !tbaa !8
  store i64 %2, ptr %7, align 8, !tbaa !10
  %8 = load ptr, ptr %5, align 8, !tbaa !77
  %9 = getelementptr inbounds nuw %struct.mbedtls_asn1_buf, ptr %8, i32 0, i32 1
  %10 = load i64, ptr %9, align 8, !tbaa !79
  %11 = load i64, ptr %7, align 8, !tbaa !10
  %12 = icmp eq i64 %10, %11
  br i1 %12, label %13, label %22

13:                                               ; preds = %3
  %14 = load ptr, ptr %6, align 8, !tbaa !8
  %15 = load ptr, ptr %5, align 8, !tbaa !77
  %16 = getelementptr inbounds nuw %struct.mbedtls_asn1_buf, ptr %15, i32 0, i32 2
  %17 = load ptr, ptr %16, align 8, !tbaa !80
  %18 = load i64, ptr %7, align 8, !tbaa !10
  %19 = call i32 @x509_memcasecmp(ptr noundef %14, ptr noundef %17, i64 noundef %18)
  %20 = icmp eq i32 %19, 0
  br i1 %20, label %21, label %22

21:                                               ; preds = %13
  store i32 0, ptr %4, align 4
  br label %29

22:                                               ; preds = %13, %3
  %23 = load ptr, ptr %6, align 8, !tbaa !8
  %24 = load ptr, ptr %5, align 8, !tbaa !77
  %25 = call i32 @x509_check_wildcard(ptr noundef %23, ptr noundef %24)
  %26 = icmp eq i32 %25, 0
  br i1 %26, label %27, label %28

27:                                               ; preds = %22
  store i32 0, ptr %4, align 4
  br label %29

28:                                               ; preds = %22
  store i32 -1, ptr %4, align 4
  br label %29

29:                                               ; preds = %28, %27, %21
  %30 = load i32, ptr %4, align 4
  ret i32 %30
}