; Function Attrs: nofree nounwind memory(read, inaccessiblemem: none) uwtable
define internal fastcc range(i32 -1, 1) i32 @x509_crt_check_cn(ptr noundef nonnull readonly captures(none) %0, ptr noundef nonnull readonly captures(none) %1, i64 noundef %2) unnamed_addr #9 {
  %4 = getelementptr inbounds nuw i8, ptr %0, i64 8
  %5 = load i64, ptr %4, align 8, !tbaa !39
  %6 = icmp eq i64 %5, %2
  br i1 %6, label %7, label %x509_memcasecmp.exit

7:                                                ; preds = %3
  %8 = getelementptr inbounds nuw i8, ptr %0, i64 16
  %9 = load ptr, ptr %8, align 8, !tbaa !41
  %.not.i = icmp eq i64 %2, 0
  br i1 %.not.i, label %x509_check_wildcard.exit, label %.lr.ph.i

.lr.ph.i:                                         ; preds = %7, %21
  %.01925.i = phi i64 [ %22, %21 ], [ 0, %7 ]
  %10 = getelementptr inbounds nuw i8, ptr %1, i64 %.01925.i
  %11 = load i8, ptr %10, align 1, !tbaa !43
  %12 = getelementptr inbounds nuw i8, ptr %9, i64 %.01925.i
  %13 = load i8, ptr %12, align 1, !tbaa !43
  %14 = icmp eq i8 %11, %13
  br i1 %14, label %21, label %15

15:                                               ; preds = %.lr.ph.i
  %16 = xor i8 %13, %11
  %17 = icmp eq i8 %16, 32
  br i1 %17, label %18, label %x509_memcasecmp.exit

18:                                               ; preds = %15
  %19 = and i8 %11, -33
  %20 = add i8 %19, -65
  %or.cond24.i = icmp ult i8 %20, 26
  br i1 %or.cond24.i, label %21, label %x509_memcasecmp.exit

21:                                               ; preds = %18, %.lr.ph.i
  %22 = add nuw i64 %.01925.i, 1
  %exitcond.not.i = icmp eq i64 %22, %2
  br i1 %exitcond.not.i, label %x509_check_wildcard.exit, label %.lr.ph.i, !llvm.loop !119

x509_memcasecmp.exit:                             ; preds = %18, %15, %3
  %23 = tail call i64 @strlen(ptr noundef nonnull readonly dereferenceable(1) %1) #18
  %24 = icmp ult i64 %5, 3
  br i1 %24, label %x509_check_wildcard.exit, label %25

25:                                               ; preds = %x509_memcasecmp.exit
  %26 = getelementptr inbounds nuw i8, ptr %0, i64 16
  %27 = load ptr, ptr %26, align 8, !tbaa !41
  %28 = load i8, ptr %27, align 1, !tbaa !43
  %.not.i8 = icmp eq i8 %28, 42
  br i1 %.not.i8, label %29, label %x509_check_wildcard.exit

29:                                               ; preds = %25
  %30 = getelementptr inbounds nuw i8, ptr %27, i64 1
  %31 = load i8, ptr %30, align 1, !tbaa !43
  %.not21.i = icmp eq i8 %31, 46
  %32 = icmp ne i64 %23, 0
  %or.cond.i = select i1 %.not21.i, i1 %32, i1 false
  br i1 %or.cond.i, label %.lr.ph.i10, label %x509_check_wildcard.exit

.lr.ph.i10:                                       ; preds = %29, %36
  %.01926.i = phi i64 [ %37, %36 ], [ 0, %29 ]
  %33 = getelementptr inbounds nuw i8, ptr %1, i64 %.01926.i
  %34 = load i8, ptr %33, align 1, !tbaa !43
  %35 = icmp eq i8 %34, 46
  br i1 %35, label %38, label %36

36:                                               ; preds = %.lr.ph.i10
  %37 = add nuw i64 %.01926.i, 1
  %exitcond.not.i11 = icmp eq i64 %37, %23
  br i1 %exitcond.not.i11, label %x509_check_wildcard.exit, label %.lr.ph.i10, !llvm.loop !155

38:                                               ; preds = %.lr.ph.i10
  %39 = getelementptr inbounds nuw i8, ptr %1, i64 %.01926.i
  %40 = icmp eq i64 %.01926.i, 0
  br i1 %40, label %x509_check_wildcard.exit, label %41

41:                                               ; preds = %38
  %42 = sub i64 %23, %.01926.i
  %43 = add i64 %5, -1
  %44 = icmp eq i64 %42, %43
  br i1 %44, label %.lr.ph.i.i, label %x509_check_wildcard.exit

.lr.ph.i.i:                                       ; preds = %41, %56
  %.01925.i.i = phi i64 [ %57, %56 ], [ 0, %41 ]
  %45 = getelementptr inbounds nuw i8, ptr %30, i64 %.01925.i.i
  %46 = load i8, ptr %45, align 1, !tbaa !43
  %47 = getelementptr inbounds nuw i8, ptr %39, i64 %.01925.i.i
  %48 = load i8, ptr %47, align 1, !tbaa !43
  %49 = icmp eq i8 %46, %48
  br i1 %49, label %56, label %50

50:                                               ; preds = %.lr.ph.i.i
  %51 = xor i8 %48, %46
  %52 = icmp eq i8 %51, 32
  br i1 %52, label %53, label %x509_check_wildcard.exit

53:                                               ; preds = %50
  %54 = and i8 %46, -33
  %55 = add i8 %54, -65
  %or.cond24.i.i = icmp ult i8 %55, 26
  br i1 %or.cond24.i.i, label %56, label %x509_check_wildcard.exit

56:                                               ; preds = %53, %.lr.ph.i.i
  %57 = add nuw i64 %.01925.i.i, 1
  %exitcond.not.i.i = icmp eq i64 %57, %42
  br i1 %exitcond.not.i.i, label %x509_check_wildcard.exit, label %.lr.ph.i.i, !llvm.loop !119

x509_check_wildcard.exit:                         ; preds = %21, %36, %53, %50, %56, %41, %38, %x509_memcasecmp.exit, %25, %29, %7
  %.0 = phi i32 [ 0, %7 ], [ -1, %29 ], [ -1, %25 ], [ -1, %x509_memcasecmp.exit ], [ -1, %38 ], [ -1, %41 ], [ -1, %53 ], [ -1, %50 ], [ 0, %56 ], [ -1, %36 ], [ 0, %21 ]
  ret i32 %.0
}